(lp0
S'2020-01-06_cb_3areas_ff0p1_fb0p05_lr=1e-4_seed=0.pkl'
p1
aS'2020-01-06_cb_3areas_ff0p1_fb0p05_lr=1e-4_seed=1.pkl'
p2
aS'2020-01-06_cb_3areas_ff0p1_fb0p05_lr=1e-4_seed=2.pkl'
p3
aS'2020-01-06_cb_3areas_ff0p1_fb0p05_lr=1e-4_seed=3.pkl'
p4
aS'2020-01-06_cb_3areas_ff0p1_fb0p05_lr=1e-5_seed=0.pkl'
p5
aS'2020-01-06_cb_3areas_ff0p1_fb0p05_lr=1e-5_seed=1.pkl'
p6
aS'2020-01-06_cb_3areas_ff0p1_fb0p05_lr=1e-5_seed=2.pkl'
p7
aS'2020-01-06_cb_3areas_ff0p1_fb0p05_lr=1e-5_seed=3.pkl'
p8
aS'2020-01-06_cb_3areas_ff0p1_fb0p05_lr=5e-4_seed=0.pkl'
p9
aS'2020-01-06_cb_3areas_ff0p1_fb0p05_lr=5e-4_seed=1.pkl'
p10
aS'2020-01-06_cb_3areas_ff0p1_fb0p05_lr=5e-4_seed=2.pkl'
p11
aS'2020-01-06_cb_3areas_ff0p1_fb0p05_lr=5e-4_seed=3.pkl'
p12
a.