(lp0
S'2018-08-29_cb_3areas_ff0p1_fb0p05_seed=0.pkl'
p1
aS'2018-08-29_cb_3areas_ff0p1_fb0p05_seed=1.pkl'
p2
aS'2018-08-29_cb_3areas_ff0p1_fb0p05_seed=2.pkl'
p3
aS'2018-08-29_cb_3areas_ff0p1_fb0p05_seed=3.pkl'
p4
aS'2018-08-29_cb_3areas_ff0p1_fb0p05_seed=4.pkl'
p5
aS'2018-08-29_cb_3areas_ff0p1_fb0p05_seed=5.pkl'
p6
aS'2018-08-29_cb_3areas_ff0p1_fb0p05_seed=6.pkl'
p7
aS'2018-08-29_cb_3areas_ff0p1_fb0p05_seed=7.pkl'
p8
aS'2018-08-29_cb_3areas_ff0p1_fb0p0_seed=0.pkl'
p9
aS'2018-08-29_cb_3areas_ff0p1_fb0p0_seed=1.pkl'
p10
aS'2018-08-29_cb_3areas_ff0p1_fb0p0_seed=2.pkl'
p11
aS'2018-08-29_cb_3areas_ff0p1_fb0p0_seed=3.pkl'
p12
aS'2018-08-29_cb_3areas_ff0p1_fb0p0_seed=4.pkl'
p13
aS'2018-08-29_cb_3areas_ff0p1_fb0p0_seed=5.pkl'
p14
aS'2018-08-29_cb_3areas_ff0p1_fb0p0_seed=6.pkl'
p15
aS'2018-08-29_cb_3areas_ff0p1_fb0p0_seed=7.pkl'
p16
aS'2018-08-29_cb_3areas_ff0p1_fb0p1_seed=0.pkl'
p17
aS'2018-08-29_cb_3areas_ff0p1_fb0p1_seed=1.pkl'
p18
aS'2018-08-29_cb_3areas_ff0p1_fb0p1_seed=2.pkl'
p19
aS'2018-08-29_cb_3areas_ff0p1_fb0p1_seed=3.pkl'
p20
aS'2018-08-29_cb_3areas_ff0p1_fb0p1_seed=4.pkl'
p21
aS'2018-08-29_cb_3areas_ff0p1_fb0p1_seed=5.pkl'
p22
aS'2018-08-29_cb_3areas_ff0p1_fb0p1_seed=6.pkl'
p23
aS'2018-08-29_cb_3areas_ff0p1_fb0p1_seed=7.pkl'
p24
aS'2018-08-29_cb_3areas_ff0p2_fb0p05_seed=0.pkl'
p25
aS'2018-08-29_cb_3areas_ff0p2_fb0p05_seed=1.pkl'
p26
aS'2018-08-29_cb_3areas_ff0p2_fb0p05_seed=2.pkl'
p27
aS'2018-08-29_cb_3areas_ff0p2_fb0p05_seed=3.pkl'
p28
aS'2018-08-29_cb_3areas_ff0p2_fb0p05_seed=4.pkl'
p29
aS'2018-08-29_cb_3areas_ff0p2_fb0p05_seed=5.pkl'
p30
aS'2018-08-29_cb_3areas_ff0p2_fb0p05_seed=6.pkl'
p31
aS'2018-08-29_cb_3areas_ff0p2_fb0p05_seed=7.pkl'
p32
aS'2018-08-29_cb_3areas_ff0p2_fb0p0_seed=0.pkl'
p33
aS'2018-08-29_cb_3areas_ff0p2_fb0p0_seed=1.pkl'
p34
aS'2018-08-29_cb_3areas_ff0p2_fb0p0_seed=2.pkl'
p35
aS'2018-08-29_cb_3areas_ff0p2_fb0p0_seed=3.pkl'
p36
aS'2018-08-29_cb_3areas_ff0p2_fb0p0_seed=4.pkl'
p37
aS'2018-08-29_cb_3areas_ff0p2_fb0p0_seed=5.pkl'
p38
aS'2018-08-29_cb_3areas_ff0p2_fb0p0_seed=6.pkl'
p39
aS'2018-08-29_cb_3areas_ff0p2_fb0p0_seed=7.pkl'
p40
aS'2018-08-29_cb_3areas_ff0p2_fb0p1_seed=0.pkl'
p41
aS'2018-08-29_cb_3areas_ff0p2_fb0p1_seed=1.pkl'
p42
aS'2018-08-29_cb_3areas_ff0p2_fb0p1_seed=2.pkl'
p43
aS'2018-08-29_cb_3areas_ff0p2_fb0p1_seed=3.pkl'
p44
aS'2018-08-29_cb_3areas_ff0p2_fb0p1_seed=4.pkl'
p45
aS'2018-08-29_cb_3areas_ff0p2_fb0p1_seed=5.pkl'
p46
aS'2018-08-29_cb_3areas_ff0p2_fb0p1_seed=6.pkl'
p47
aS'2018-08-29_cb_3areas_ff0p2_fb0p1_seed=7.pkl'
p48
aS'2018-08-29_cb_3areas_ff0p3_fb0p05_seed=0.pkl'
p49
aS'2018-08-29_cb_3areas_ff0p3_fb0p05_seed=1.pkl'
p50
aS'2018-08-29_cb_3areas_ff0p3_fb0p05_seed=2.pkl'
p51
aS'2018-08-29_cb_3areas_ff0p3_fb0p05_seed=3.pkl'
p52
aS'2018-08-29_cb_3areas_ff0p3_fb0p05_seed=4.pkl'
p53
aS'2018-08-29_cb_3areas_ff0p3_fb0p05_seed=5.pkl'
p54
aS'2018-08-29_cb_3areas_ff0p3_fb0p05_seed=6.pkl'
p55
aS'2018-08-29_cb_3areas_ff0p3_fb0p05_seed=7.pkl'
p56
aS'2018-08-29_cb_3areas_ff0p3_fb0p0_seed=0.pkl'
p57
aS'2018-08-29_cb_3areas_ff0p3_fb0p0_seed=1.pkl'
p58
aS'2018-08-29_cb_3areas_ff0p3_fb0p0_seed=2.pkl'
p59
aS'2018-08-29_cb_3areas_ff0p3_fb0p0_seed=3.pkl'
p60
aS'2018-08-29_cb_3areas_ff0p3_fb0p0_seed=4.pkl'
p61
aS'2018-08-29_cb_3areas_ff0p3_fb0p0_seed=5.pkl'
p62
aS'2018-08-29_cb_3areas_ff0p3_fb0p0_seed=6.pkl'
p63
aS'2018-08-29_cb_3areas_ff0p3_fb0p0_seed=7.pkl'
p64
aS'2018-08-29_cb_3areas_ff0p3_fb0p1_seed=0.pkl'
p65
aS'2018-08-29_cb_3areas_ff0p3_fb0p1_seed=1.pkl'
p66
aS'2018-08-29_cb_3areas_ff0p3_fb0p1_seed=2.pkl'
p67
aS'2018-08-29_cb_3areas_ff0p3_fb0p1_seed=3.pkl'
p68
aS'2018-08-29_cb_3areas_ff0p3_fb0p1_seed=4.pkl'
p69
aS'2018-08-29_cb_3areas_ff0p3_fb0p1_seed=5.pkl'
p70
aS'2018-08-29_cb_3areas_ff0p3_fb0p1_seed=6.pkl'
p71
aS'2018-08-29_cb_3areas_ff0p3_fb0p1_seed=7.pkl'
p72
a.